; Function Attrs: mustprogress nofree norecurse nosync nounwind willreturn memory(argmem: read) uwtable
define noundef range(i64 -1152921504606846976, 1152921504606846976) i64 @_ZNK8QuantLib20EvolutionDescription13numberOfStepsEv(ptr nocapture noundef nonnull readonly align 8 dereferenceable(128) %this) local_unnamed_addr #7 align 2 {
entry:
  %evolutionTimes_ = getelementptr inbounds nuw i8, ptr %this, i64 32
  %_M_finish.i = getelementptr inbounds nuw i8, ptr %this, i64 40
  %0 = load ptr, ptr %_M_finish.i, align 8, !tbaa !24
  %1 = load ptr, ptr %evolutionTimes_, align 8, !tbaa !23
  %sub.ptr.lhs.cast.i = ptrtoint ptr %0 to i64
  %sub.ptr.rhs.cast.i = ptrtoint ptr %1 to i64
  %sub.ptr.sub.i = sub i64 %sub.ptr.lhs.cast.i, %sub.ptr.rhs.cast.i
  %sub.ptr.div.i = ashr exact i64 %sub.ptr.sub.i, 3
  ret i64 %sub.ptr.div.i
}